target datalayout = "e-m:e-p270:32:32-p271:32:32-p272:64:64-i64:64-i128:128-f80:128-n8:16:32:64-S128"
target triple = "x86_64-unknown-linux-gnu"

%"class.cvc5::internal::theory::arith::linear::RaiseConflict" = type { ptr }
%"class.cvc5::internal::theory::arith::linear::TempVarMalloc" = type { %"class.cvc5::internal::theory::arith::linear::ArithVarMalloc", ptr }
%"class.cvc5::internal::theory::arith::linear::ArithVarMalloc" = type { ptr }
%"class.cvc5::internal::theory::arith::linear::FCSimplexDecisionProcedure" = type { %"class.cvc5::internal::theory::arith::linear::SimplexDecisionProcedure", %"class.cvc5::internal::DenseMultiset", i32, i32, %"class.cvc5::internal::DenseMap.5", i32, i32, i32, %"class.cvc5::internal::DenseMap.4", %"class.std::vector", %"class.cvc5::internal::theory::arith::linear::FCSimplexDecisionProcedure::Statistics" }
%"class.cvc5::internal::theory::arith::linear::SimplexDecisionProcedure" = type { %"class.cvc5::internal::EnvObj", i32, %"class.cvc5::internal::DenseSet", i32, ptr, ptr, ptr, ptr, i32, %"class.cvc5::internal::theory::arith::linear::RaiseConflict", ptr, %"class.cvc5::internal::theory::arith::linear::TempVarMalloc", i32, %"class.cvc5::internal::Rational", %"class.cvc5::internal::Rational", %"class.cvc5::internal::Rational", i64 }
%"class.cvc5::internal::EnvObj" = type { ptr, ptr }
%"class.cvc5::internal::DenseSet" = type { %"class.cvc5::internal::DenseMap" }
%"class.cvc5::internal::DenseMap" = type { %"class.std::vector", %"class.std::vector", %"class.std::vector.0" }
%"class.std::vector.0" = type { %"struct.std::_Bvector_base" }
%"struct.std::_Bvector_base" = type { %"struct.std::_Bvector_base<std::allocator<bool>>::_Bvector_impl" }
%"struct.std::_Bvector_base<std::allocator<bool>>::_Bvector_impl" = type { %"struct.std::_Bvector_base<std::allocator<bool>>::_Bvector_impl_data" }
%"struct.std::_Bvector_base<std::allocator<bool>>::_Bvector_impl_data" = type { %"struct.std::_Bit_iterator", %"struct.std::_Bit_iterator", ptr }
%"struct.std::_Bit_iterator" = type { %"struct.std::_Bit_iterator_base.base", [4 x i8] }
%"struct.std::_Bit_iterator_base.base" = type <{ ptr, i32 }>
%"class.cvc5::internal::Rational" = type { %class.__gmp_expr }
%class.__gmp_expr = type { [1 x %struct.__mpq_struct] }
%struct.__mpq_struct = type { %struct.__mpz_struct, %struct.__mpz_struct }
%struct.__mpz_struct = type { i32, i32, ptr }
%"class.cvc5::internal::DenseMultiset" = type { %"class.cvc5::internal::DenseMap.4" }
%"class.cvc5::internal::DenseMap.5" = type { %"class.std::vector", %"class.std::vector", %"class.std::vector.6" }
%"class.std::vector.6" = type { %"struct.std::_Vector_base.7" }
%"struct.std::_Vector_base.7" = type { %"struct.std::_Vector_base<const cvc5::internal::Rational *, std::allocator<const cvc5::internal::Rational *>>::_Vector_impl" }
%"struct.std::_Vector_base<const cvc5::internal::Rational *, std::allocator<const cvc5::internal::Rational *>>::_Vector_impl" = type { %"struct.std::_Vector_base<const cvc5::internal::Rational *, std::allocator<const cvc5::internal::Rational *>>::_Vector_impl_data" }
%"struct.std::_Vector_base<const cvc5::internal::Rational *, std::allocator<const cvc5::internal::Rational *>>::_Vector_impl_data" = type { ptr, ptr, ptr }
%"class.cvc5::internal::DenseMap.4" = type { %"class.std::vector", %"class.std::vector", %"class.std::vector" }
%"class.std::vector" = type { %"struct.std::_Vector_base" }
%"struct.std::_Vector_base" = type { %"struct.std::_Vector_base<unsigned int, std::allocator<unsigned int>>::_Vector_impl" }
%"struct.std::_Vector_base<unsigned int, std::allocator<unsigned int>>::_Vector_impl" = type { %"struct.std::_Vector_base<unsigned int, std::allocator<unsigned int>>::_Vector_impl_data" }
%"struct.std::_Vector_base<unsigned int, std::allocator<unsigned int>>::_Vector_impl_data" = type { ptr, ptr, ptr }
%"class.cvc5::internal::theory::arith::linear::FCSimplexDecisionProcedure::Statistics" = type { %"class.cvc5::internal::TimerStat", %"class.cvc5::internal::IntStat", %"class.cvc5::internal::IntStat", %"class.cvc5::internal::IntStat", %"class.cvc5::internal::IntStat", %"class.cvc5::internal::TimerStat", %"class.cvc5::internal::TimerStat", %"class.cvc5::internal::TimerStat", %"class.cvc5::internal::TimerStat", %"class.cvc5::internal::ReferenceStat" }
%"class.cvc5::internal::IntStat" = type { %"class.cvc5::internal::ValueStat" }
%"class.cvc5::internal::ValueStat" = type { ptr }
%"class.cvc5::internal::TimerStat" = type { ptr }
%"class.cvc5::internal::ReferenceStat" = type { ptr }

; Function Attrs: mustprogress nounwind uwtable
define linkonce_odr hidden noundef i64 @_ZNKSt6vectorIjSaIjEE4sizeEv(ptr noundef nonnull align 8 dereferenceable(24) %this) #6 comdat align 2 {
entry:
  %this.addr = alloca ptr, align 8
  store ptr %this, ptr %this.addr, align 8
  %this1 = load ptr, ptr %this.addr, align 8
  %_M_impl = getelementptr inbounds %"struct.std::_Vector_base", ptr %this1, i32 0, i32 0
  %_M_finish = getelementptr inbounds %"struct.std::_Vector_base<unsigned int, std::allocator<unsigned int>>::_Vector_impl_data", ptr %_M_impl, i32 0, i32 1
  %0 = load ptr, ptr %_M_finish, align 8
  %_M_impl2 = getelementptr inbounds %"struct.std::_Vector_base", ptr %this1, i32 0, i32 0
  %_M_start = getelementptr inbounds %"struct.std::_Vector_base<unsigned int, std::allocator<unsigned int>>::_Vector_impl_data", ptr %_M_impl2, i32 0, i32 0
  %1 = load ptr, ptr %_M_start, align 8
  %sub.ptr.lhs.cast = ptrtoint ptr %0 to i64
  %sub.ptr.rhs.cast = ptrtoint ptr %1 to i64
  %sub.ptr.sub = sub i64 %sub.ptr.lhs.cast, %sub.ptr.rhs.cast
  %sub.ptr.div = sdiv exact i64 %sub.ptr.sub, 4
  ret i64 %sub.ptr.div
}

; Function Attrs: mustprogress nounwind uwtable
define linkonce_odr hidden noundef nonnull align 8 dereferenceable(8) ptr @_ZNKSt6vectorIPKN4cvc58internal8RationalESaIS4_EEixEm(ptr noundef nonnull align 8 dereferenceable(24) %this, i64 noundef %__n) #6 comdat align 2 {
entry:
  %this.addr = alloca ptr, align 8
  %__n.addr = alloca i64, align 8
  store ptr %this, ptr %this.addr, align 8
  store i64 %__n, ptr %__n.addr, align 8
  %this1 = load ptr, ptr %this.addr, align 8
  %_M_impl = getelementptr inbounds %"struct.std::_Vector_base.7", ptr %this1, i32 0, i32 0
  %_M_start = getelementptr inbounds %"struct.std::_Vector_base<const cvc5::internal::Rational *, std::allocator<const cvc5::internal::Rational *>>::_Vector_impl_data", ptr %_M_impl, i32 0, i32 0
  %0 = load ptr, ptr %_M_start, align 8
  %1 = load i64, ptr %__n.addr, align 8
  %add.ptr = getelementptr inbounds ptr, ptr %0, i64 %1
  ret ptr %add.ptr
}

; Function Attrs: mustprogress nounwind uwtable
define linkonce_odr hidden noundef nonnull align 4 dereferenceable(4) ptr @_ZNKSt6vectorIjSaIjEEixEm(ptr noundef nonnull align 8 dereferenceable(24) %this, i64 noundef %__n) #6 comdat align 2 {
entry:
  %this.addr = alloca ptr, align 8
  %__n.addr = alloca i64, align 8
  store ptr %this, ptr %this.addr, align 8
  store i64 %__n, ptr %__n.addr, align 8
  %this1 = load ptr, ptr %this.addr, align 8
  %_M_impl = getelementptr inbounds %"struct.std::_Vector_base", ptr %this1, i32 0, i32 0
  %_M_start = getelementptr inbounds %"struct.std::_Vector_base<unsigned int, std::allocator<unsigned int>>::_Vector_impl_data", ptr %_M_impl, i32 0, i32 0
  %0 = load ptr, ptr %_M_start, align 8
  %1 = load i64, ptr %__n.addr, align 8
  %add.ptr = getelementptr inbounds i32, ptr %0, i64 %1
  ret ptr %add.ptr
}

; Function Attrs: mustprogress nounwind uwtable
define linkonce_odr hidden noundef i64 @_ZNK4cvc58internal8DenseMapIPKNS0_8RationalEE9allocatedEv(ptr noundef nonnull align 8 dereferenceable(72) %this) #6 comdat align 2 {
entry:
  %this.addr = alloca ptr, align 8
  store ptr %this, ptr %this.addr, align 8
  %this1 = load ptr, ptr %this.addr, align 8
  %d_posVector = getelementptr inbounds %"class.cvc5::internal::DenseMap.5", ptr %this1, i32 0, i32 1
  %call = call noundef i64 @_ZNKSt6vectorIjSaIjEE4sizeEv(ptr noundef nonnull align 8 dereferenceable(24) %d_posVector) #3
  ret i64 %call
}

; Function Attrs: mustprogress nounwind uwtable
define linkonce_odr hidden noundef nonnull align 8 dereferenceable(8) ptr @_ZNK4cvc58internal8DenseMapIPKNS0_8RationalEEixEj(ptr noundef nonnull align 8 dereferenceable(72) %this, i32 noundef %key) #6 comdat align 2 {
entry:
  %this.addr = alloca ptr, align 8
  %key.addr = alloca i32, align 4
  store ptr %this, ptr %this.addr, align 8
  store i32 %key, ptr %key.addr, align 4
  %this1 = load ptr, ptr %this.addr, align 8
  %d_image = getelementptr inbounds %"class.cvc5::internal::DenseMap.5", ptr %this1, i32 0, i32 2
  %0 = load i32, ptr %key.addr, align 4
  %conv = zext i32 %0 to i64
  %call = call noundef nonnull align 8 dereferenceable(8) ptr @_ZNKSt6vectorIPKN4cvc58internal8RationalESaIS4_EEixEm(ptr noundef nonnull align 8 dereferenceable(24) %d_image, i64 noundef %conv) #3
  ret ptr %call
}

; Function Attrs: mustprogress nounwind uwtable
define linkonce_odr hidden noundef zeroext i1 @_ZNK4cvc58internal8DenseMapIPKNS0_8RationalEE5isKeyEj(ptr noundef nonnull align 8 dereferenceable(72) %this, i32 noundef %x) #6 comdat align 2 {
entry:
  %retval = alloca i1, align 1
  %this.addr = alloca ptr, align 8
  %x.addr = alloca i32, align 4
  store ptr %this, ptr %this.addr, align 8
  store i32 %x, ptr %x.addr, align 4
  %this1 = load ptr, ptr %this.addr, align 8
  %0 = load i32, ptr %x.addr, align 4
  %conv = zext i32 %0 to i64
  %call = call noundef i64 @_ZNK4cvc58internal8DenseMapIPKNS0_8RationalEE9allocatedEv(ptr noundef nonnull align 8 dereferenceable(72) %this1)
  %cmp = icmp uge i64 %conv, %call
  br i1 %cmp, label %if.then, label %if.else

if.then:                                          ; preds = %entry
  store i1 false, ptr %retval, align 1
  br label %return

if.else:                                          ; preds = %entry
  %d_posVector = getelementptr inbounds %"class.cvc5::internal::DenseMap.5", ptr %this1, i32 0, i32 1
  %1 = load i32, ptr %x.addr, align 4
  %conv2 = zext i32 %1 to i64
  %call3 = call noundef nonnull align 4 dereferenceable(4) ptr @_ZNKSt6vectorIjSaIjEEixEm(ptr noundef nonnull align 8 dereferenceable(24) %d_posVector, i64 noundef %conv2) #3
  %2 = load i32, ptr %call3, align 4
  %cmp4 = icmp ne i32 %2, -1
  store i1 %cmp4, ptr %retval, align 1
  br label %return

return:                                           ; preds = %if.else, %if.then
  %3 = load i1, ptr %retval, align 1
  ret i1 %3
}

; Function Attrs: mustprogress uwtable
define hidden noundef nonnull align 8 dereferenceable(32) ptr @_ZNK4cvc58internal6theory5arith6linear26FCSimplexDecisionProcedure16focusCoefficientEj(ptr noundef nonnull align 8 dereferenceable(648) %this, i32 noundef %nb) #4 align 2 {
entry:
  %retval = alloca ptr, align 8
  %this.addr = alloca ptr, align 8
  %nb.addr = alloca i32, align 4
  store ptr %this, ptr %this.addr, align 8
  store i32 %nb, ptr %nb.addr, align 4
  %this1 = load ptr, ptr %this.addr, align 8
  %d_focusCoefficients = getelementptr inbounds %"class.cvc5::internal::theory::arith::linear::FCSimplexDecisionProcedure", ptr %this1, i32 0, i32 4
  %0 = load i32, ptr %nb.addr, align 4
  %call = call noundef zeroext i1 @_ZNK4cvc58internal8DenseMapIPKNS0_8RationalEE5isKeyEj(ptr noundef nonnull align 8 dereferenceable(72) %d_focusCoefficients, i32 noundef %0)
  br i1 %call, label %if.then, label %if.else

if.then:                                          ; preds = %entry
  %d_focusCoefficients2 = getelementptr inbounds %"class.cvc5::internal::theory::arith::linear::FCSimplexDecisionProcedure", ptr %this1, i32 0, i32 4
  %1 = load i32, ptr %nb.addr, align 4
  %call3 = call noundef nonnull align 8 dereferenceable(8) ptr @_ZNK4cvc58internal8DenseMapIPKNS0_8RationalEEixEj(ptr noundef nonnull align 8 dereferenceable(72) %d_focusCoefficients2, i32 noundef %1)
  %2 = load ptr, ptr %call3, align 8
  store ptr %2, ptr %retval, align 8
  br label %return

if.else:                                          ; preds = %entry
  %d_zero = getelementptr inbounds %"class.cvc5::internal::theory::arith::linear::SimplexDecisionProcedure", ptr %this1, i32 0, i32 13
  store ptr %d_zero, ptr %retval, align 8
  br label %return

return:                                           ; preds = %if.else, %if.then
  %3 = load ptr, ptr %retval, align 8
  ret ptr %3
}