; Function Attrs: mustprogress nofree norecurse nosync nounwind willreturn memory(read, inaccessiblemem: none) uwtable
define hidden noundef nonnull align 8 dereferenceable(32) ptr @_ZNK4cvc58internal6theory5arith6linear26FCSimplexDecisionProcedure16focusCoefficientEj(ptr noundef nonnull readonly align 8 dereferenceable(648) %this, i32 noundef %nb) local_unnamed_addr #9 align 2 {
entry:
  %conv.i = zext i32 %nb to i64
  %d_posVector.i.i = getelementptr inbounds i8, ptr %this, i64 408
  %_M_finish.i.i.i = getelementptr inbounds i8, ptr %this, i64 416
  %0 = load ptr, ptr %_M_finish.i.i.i, align 8
  %1 = load ptr, ptr %d_posVector.i.i, align 8
  %sub.ptr.lhs.cast.i.i.i = ptrtoint ptr %0 to i64
  %sub.ptr.rhs.cast.i.i.i = ptrtoint ptr %1 to i64
  %sub.ptr.sub.i.i.i = sub i64 %sub.ptr.lhs.cast.i.i.i, %sub.ptr.rhs.cast.i.i.i
  %sub.ptr.div.i.i.i = ashr exact i64 %sub.ptr.sub.i.i.i, 2
  %cmp.not.i = icmp ugt i64 %sub.ptr.div.i.i.i, %conv.i
  br i1 %cmp.not.i, label %_ZNK4cvc58internal8DenseMapIPKNS0_8RationalEE5isKeyEj.exit, label %if.else

_ZNK4cvc58internal8DenseMapIPKNS0_8RationalEE5isKeyEj.exit: ; preds = %entry
  %add.ptr.i.i = getelementptr inbounds i32, ptr %1, i64 %conv.i
  %2 = load i32, ptr %add.ptr.i.i, align 4
  %cmp4.i.not = icmp eq i32 %2, -1
  br i1 %cmp4.i.not, label %if.else, label %if.then

if.then:                                          ; preds = %_ZNK4cvc58internal8DenseMapIPKNS0_8RationalEE5isKeyEj.exit
  %d_image.i = getelementptr inbounds i8, ptr %this, i64 432
  %3 = load ptr, ptr %d_image.i, align 8
  %add.ptr.i.i3 = getelementptr inbounds ptr, ptr %3, i64 %conv.i
  %4 = load ptr, ptr %add.ptr.i.i3, align 8
  br label %return

if.else:                                          ; preds = %entry, %_ZNK4cvc58internal8DenseMapIPKNS0_8RationalEE5isKeyEj.exit
  %d_zero = getelementptr inbounds i8, ptr %this, i64 200
  br label %return

return:                                           ; preds = %if.else, %if.then
  %retval.0 = phi ptr [ %4, %if.then ], [ %d_zero, %if.else ]
  ret ptr %retval.0
}